; Function Attrs: mustprogress nounwind uwtable
define hidden void @_ZN19NullCheckEliminator5visitEPP11Instruction(ptr noundef nonnull align 8 dereferenceable(88) %0, ptr nocapture noundef readonly %1) unnamed_addr #1 align 2 {
  %3 = load ptr, ptr %1, align 8
  %4 = getelementptr inbounds i8, ptr %0, i64 16
  %5 = load ptr, ptr %4, align 8
  %6 = getelementptr inbounds i8, ptr %3, i64 8
  %7 = load i32, ptr %6, align 8
  %8 = sext i32 %7 to i64
  %9 = load ptr, ptr %5, align 8
  %10 = lshr i64 %8, 6
  %11 = getelementptr inbounds i64, ptr %9, i64 %10
  %12 = load i64, ptr %11, align 8
  %13 = and i64 %8, 63
  %14 = shl nuw i64 1, %13
  %15 = and i64 %14, %12
  %.not = icmp eq i64 %15, 0
  br i1 %.not, label %24, label %16

16:                                               ; preds = %2
  %17 = xor i64 %14, -1
  %18 = and i64 %12, %17
  store i64 %18, ptr %11, align 8
  %19 = load ptr, ptr %1, align 8
  %20 = getelementptr inbounds i8, ptr %0, i64 64
  %21 = load ptr, ptr %19, align 8
  %22 = getelementptr inbounds i8, ptr %21, i64 416
  %23 = load ptr, ptr %22, align 8
  tail call void %23(ptr noundef nonnull align 8 dereferenceable(96) %19, ptr noundef nonnull %20) #14
  br label %24

24:                                               ; preds = %16, %2
  ret void
}